(dp1
S'pbui'
p2
ccopy_reg
_reconstructor
p3
(cusersData
FacultyData
p4
c__builtin__
object
p5
NtRp6
(dp7
S'title'
p8
VFaculty
p9
sS'college'
p10
VCollege of Engineering
p11
sS'name'
p12
VPeter James Bui
p13
sS'netid'
p14
g2
sbsS'mmcnally'
p15
g3
(g4
g5
NtRp16
(dp17
g8
VStaff
p18
sg10
VCollege of Engineering
p19
sg12
VMichael Philip McNally
p20
sg14
g15
sbs.