(dp1
S'lprieb'
p2
ccopy_reg
_reconstructor
p3
(cusersData
StudentData
p4
c__builtin__
object
p5
NtRp6
(dp7
S'grade'
p8
VSenior
p9
sS'title'
p10
VStudent
p11
sS'college'
p12
VCollege of Engineering
p13
sS'name'
p14
VLuis Alberto PriebPerez
p15
sS'netid'
p16
g2
sbsS'josorio2'
p17
g3
(g4
g5
NtRp18
(dp19
g8
VJunior
p20
sg10
VStudent
p21
sg12
VCollege of Engineering
p22
sg14
VJosefa Joyce Osorio
p23
sg16
g17
sbsS'aflores8'
p24
g3
(g4
g5
NtRp25
(dp26
g8
VSenior
p27
sg10
VStudent
p28
sg12
VCollege of Engineering
p29
sg14
VAlan Flores
p30
sg16
g24
sbsS'akeenan2'
p31
g3
(g4
g5
NtRp32
(dp33
g8
VSenior
p34
sg10
VStudent
p35
sg12
VCollege of Engineering
p36
sg14
VAnn Elizabeth Keenan
p37
sg16
g31
sbsS'wfritz'
p38
g3
(g4
g5
NtRp39
(dp40
g8
VJunior
p41
sg10
VStudent
p42
sg12
VCollege of Engineering
p43
sg14
VWilliam Gregory Fritz
p44
sg16
g38
sbsS'lcampbe3'
p45
g3
(g4
g5
NtRp46
(dp47
g8
VJunior
p48
sg10
VStudent
p49
sg12
VCollege of Science
p50
sg14
VLeigh C Campbell
p51
sg16
g45
sbsS'mchen6'
p52
g3
(g4
g5
NtRp53
(dp54
g8
VSenior
p55
sg10
VStudent
p56
sg12
VCollege of Engineering
p57
sg14
VMimi Yenchun Chen
p58
sg16
g52
sbsS'qfoley'
p59
g3
(g4
g5
NtRp60
(dp61
g8
VJunior
p62
sg10
VStudent
p63
sg12
VCollege of Engineering
p64
sg14
VQuinn Charles Foley
p65
sg16
g59
sbsS'mcullen5'
p66
g3
(g4
g5
NtRp67
(dp68
g8
VJunior
p69
sg10
VStudent
p70
sg12
VCollege of Engineering
p71
sg14
VMeghan Rose Cullen
p72
sg16
g66
sbsS'mcresap'
p73
g3
(g4
g5
NtRp74
(dp75
g8
VSophomore
p76
sg10
VStudent
p77
sg12
VCollege of Engineering
p78
sg14
VMaria Elizabeth Cresap
p79
sg16
g73
sbsS'rsun2'
p80
g3
(g4
g5
NtRp81
(dp82
g8
VJunior
p83
sg10
VStudent
p84
sg12
VCollege of Engineering
p85
sg14
VRuochen Sun
p86
sg16
g80
sbsS'jkim56'
p87
g3
(g4
g5
NtRp88
(dp89
g8
VJunior
p90
sg10
VStudent
p91
sg12
VCollege of Engineering
p92
sg14
VJin U Kim
p93
sg16
g87
sbsS'trojas1'
p94
g3
(g4
g5
NtRp95
(dp96
g8
VSophomore
p97
sg10
VStudent
p98
sg12
VCollege of Engineering
p99
sg14
VTiffany Casandra Rojas
p100
sg16
g94
sbsS'jklouda1'
p101
g3
(g4
g5
NtRp102
(dp103
g8
VJunior
p104
sg10
VStudent
p105
sg12
VCollege of Engineering
p106
sg14
VJeffrey Thomas Klouda
p107
sg16
g101
sbsS'ralvare5'
p108
g3
(g4
g5
NtRp109
(dp110
g8
VJunior
p111
sg10
VStudent
p112
sg12
VCollege of Engineering
p113
sg14
VRaelene Alvarez-McDermott
p114
sg16
g108
sbsS'arodri27'
p115
g3
(g4
g5
NtRp116
(dp117
g8
VSophomore
p118
sg10
VStudent
p119
sg12
VCollege of Engineering
p120
sg14
VAngel Gabriel Rodriguez
p121
sg16
g115
sbsS'ebrady6'
p122
g3
(g4
g5
NtRp123
(dp124
g8
VSophomore
p125
sg10
VStudent
p126
sg12
VCollege of Engineering
p127
sg14
VEmma Nicole Brady
p128
sg16
g122
sbsS'pcunneen'
p129
g3
(g4
g5
NtRp130
(dp131
g8
VSenior
p132
sg10
VStudent
p133
sg12
VCollege of Engineering
p134
sg14
VPierce Dutton Cunneen
p135
sg16
g129
sbsS'dlinares'
p136
g3
(g4
g5
NtRp137
(dp138
g8
VSophomore
p139
sg10
VStudent
p140
sg12
VCollege of Engineering
p141
sg14
VDiana Guadalupe LinaresMendez
p142
sg16
g136
sbsS'jpeek1'
p143
g3
(g4
g5
NtRp144
(dp145
g8
VJunior
p146
sg10
VStudent
p147
sg12
VCollege of Engineering
p148
sg14
VJustin Taylor Peek
p149
sg16
g143
sbsS'tclare'
p150
g3
(g4
g5
NtRp151
(dp152
g8
VSophomore
p153
sg10
VStudent
p154
sg12
VCollege of Engineering
p155
sg14
VThomas Arthur Clare
p156
sg16
g150
sbsS'ehager'
p157
g3
(g4
g5
NtRp158
(dp159
g8
VSophomore
p160
sg10
VStudent
p161
sg12
VCollege of Engineering
p162
sg14
VElijah James Hager
p163
sg16
g157
sbsS'nrocco1'
p164
g3
(g4
g5
NtRp165
(dp166
g8
VJunior
p167
sg10
VStudent
p168
sg12
VCollege of Engineering
p169
sg14
VNicholas Peter Rocco
p170
sg16
g164
sbsS'chenegha'
p171
g3
(g4
g5
NtRp172
(dp173
g8
VSophomore
p174
sg10
VStudent
p175
sg12
VCollege of Engineering
p176
sg14
VChristopher Brendan Heneghan
p177
sg16
g171
sbsS'scorn'
p178
g3
(g4
g5
NtRp179
(dp180
g8
VSenior
p181
sg10
VStudent
p182
sg12
VSaint Marys
p183
sg14
VSamantha Catherine Corn
p184
sg16
g178
sbsS'smichale'
p185
g3
(g4
g5
NtRp186
(dp187
g8
VSophomore
p188
sg10
VStudent
p189
sg12
VCollege of Engineering
p190
sg14
VSean James Michalec
p191
sg16
g185
sbsS'ewilli23'
p192
g3
(g4
g5
NtRp193
(dp194
g8
VJunior
p195
sg10
VStudent
p196
sg12
VCollege of Engineering
p197
sg14
VEthan Michael Williams
p198
sg16
g192
sbsS'ashirey'
p199
g3
(g4
g5
NtRp200
(dp201
g8
VJunior
p202
sg10
VStudent
p203
sg12
VCollege of Engineering
p204
sg14
VAbigail Grace Shirey
p205
sg16
g199
sbsS'bodonne3'
p206
g3
(g4
g5
NtRp207
(dp208
g8
VSophomore
p209
sg10
VStudent
p210
sg12
VCollege of Engineering
p211
sg14
VBrendan Patrick O'Donnell
p212
sg16
g206
sbsS'jmazane1'
p213
g3
(g4
g5
NtRp214
(dp215
g8
VJunior
p216
sg10
VStudent
p217
sg12
VCollege of Engineering
p218
sg14
VJohn Thomas Mazanec
p219
sg16
g213
sbsS'abub'
p220
g3
(g4
g5
NtRp221
(dp222
g8
VJunior
p223
sg10
VStudent
p224
sg12
VCollege of Engineering
p225
sg14
VAndrew Michael Bub
p226
sg16
g220
sbsS'zeberhar'
p227
g3
(g4
g5
NtRp228
(dp229
g8
VGraduate- PhD.
p230
sg10
VStudent
p231
sg12
VCollege of Engineering
p232
sg14
VZachary W Eberhart
p233
sg16
g227
sbsS'jfolts'
p234
g3
(g4
g5
NtRp235
(dp236
g8
VSophomore
p237
sg10
VStudent
p238
sg12
VCollege of Engineering
p239
sg14
VJacquelyn Ann Folts
p240
sg16
g234
sbsS'shynds'
p241
g3
(g4
g5
NtRp242
(dp243
g8
VJunior
p244
sg10
VStudent
p245
sg12
VCollege of Engineering
p246
sg14
VSarah Ann Hynds
p247
sg16
g241
sbsS'cvajiac'
p248
g3
(g4
g5
NtRp249
(dp250
g8
VJunior
p251
sg10
VStudent
p252
sg12
VSaint Marys
p253
sg14
VCatalina Maria Vajiac
p254
sg16
g248
sbsS'bfite'
p255
g3
(g4
g5
NtRp256
(dp257
g8
VJunior
p258
sg10
VStudent
p259
sg12
VCollege of Engineering
p260
sg14
VBrandon Edward Fite
p261
sg16
g255
sbsS'jbrady5'
p262
g3
(g4
g5
NtRp263
(dp264
g8
VSophomore
p265
sg10
VStudent
p266
sg12
VCollege of Engineering
p267
sg14
VJoseph Terence Brady
p268
sg16
g262
sbsS'ebiscoch'
p269
g3
(g4
g5
NtRp270
(dp271
g8
VJunior
p272
sg10
VStudent
p273
sg12
VCollege of Engineering
p274
sg14
VEricMichael Biscocho
p275
sg16
g269
sbsS'jphilhow'
p276
g3
(g4
g5
NtRp277
(dp278
g8
VSophomore
p279
sg10
VStudent
p280
sg12
VCollege of Engineering
p281
sg14
VJames Daniel Philhower
p282
sg16
g276
sbsS'cphan2'
p283
g3
(g4
g5
NtRp284
(dp285
g8
VJunior
p286
sg10
VStudent
p287
sg12
VCollege of Engineering
p288
sg14
VChau-Nhi Phan
p289
sg16
g283
sbsS'lwhalen2'
p290
g3
(g4
g5
NtRp291
(dp292
g8
VJunior
p293
sg10
VStudent
p294
sg12
VSaint Marys
p295
sg14
VLauren Elizabeth Whalen
p296
sg16
g290
sbsS'kkraus1'
p297
g3
(g4
g5
NtRp298
(dp299
g8
VJunior
p300
sg10
VStudent
p301
sg12
VCollege of Engineering
p302
sg14
VKendyll Marie Kraus
p303
sg16
g297
sbsS'fschicke'
p304
g3
(g4
g5
NtRp305
(dp306
g8
VSophomore
p307
sg10
VStudent
p308
sg12
VCollege of Engineering
p309
sg14
VFrancis Marion Schickel
p310
sg16
g304
sbsS'rkruege2'
p311
g3
(g4
g5
NtRp312
(dp313
g8
VJunior
p314
sg10
VStudent
p315
sg12
VCollege of Engineering
p316
sg14
VRandall Paul Krueger
p317
sg16
g311
sbsS'ktong1'
p318
g3
(g4
g5
NtRp319
(dp320
g8
VJunior
p321
sg10
VStudent
p322
sg12
VCollege of Engineering
p323
sg14
VKwanHoHerman Tong
p324
sg16
g318
sbsS'pkwak1'
p325
g3
(g4
g5
NtRp326
(dp327
g8
VJunior
p328
sg10
VStudent
p329
sg12
VCollege of Engineering
p330
sg14
VPaul Jihoon Kwak
p331
sg16
g325
sbsS'tblazek'
p332
g3
(g4
g5
NtRp333
(dp334
g8
VSophomore
p335
sg10
VStudent
p336
sg12
VCollege of Engineering
p337
sg14
VTimothy Blazek
p338
sg16
g332
sbsS'hmortemo'
p339
g3
(g4
g5
NtRp340
(dp341
g8
VSophomore
p342
sg10
VStudent
p343
sg12
VCollege of Engineering
p344
sg14
VHunter Robert Mortemore
p345
sg16
g339
sbsS'cgiuffri'
p346
g3
(g4
g5
NtRp347
(dp348
g8
VJunior
p349
sg10
VStudent
p350
sg12
VCollege of Engineering
p351
sg14
VChristopher Brian Giuffrida
p352
sg16
g346
sbsS'amital'
p353
g3
(g4
g5
NtRp354
(dp355
g8
VJunior
p356
sg10
VStudent
p357
sg12
VCollege of Engineering
p358
sg14
VAman Jacob Mital
p359
sg16
g353
sbsS'szhao4'
p360
g3
(g4
g5
NtRp361
(dp362
g8
VSophomore
p363
sg10
VStudent
p364
sg12
VCollege of Engineering
p365
sg14
VShenghong Zhao
p366
sg16
g360
sbsS'smeisenb'
p367
g3
(g4
g5
NtRp368
(dp369
g8
VJunior
p370
sg10
VStudent
p371
sg12
VCollege of Engineering
p372
sg14
VStephen Joseph Meisenbacher
p373
sg16
g367
sbsS'mgalbavy'
p374
g3
(g4
g5
NtRp375
(dp376
g8
VJunior
p377
sg10
VStudent
p378
sg12
VCollege of Engineering
p379
sg14
VMichelle Katherine Galbavy
p380
sg16
g374
sbsS'sberning'
p381
g3
(g4
g5
NtRp382
(dp383
g8
VJunior
p384
sg10
VStudent
p385
sg12
VCollege of Engineering
p386
sg14
VSamuel Henry Berning
p387
sg16
g381
sbsS'salpteki'
p388
g3
(g4
g5
NtRp389
(dp390
g8
VJunior
p391
sg10
VStudent
p392
sg12
VCollege of Engineering
p393
sg14
VSamuel Alptekin
p394
sg16
g388
sbsS'ywu6'
p395
g3
(g4
g5
NtRp396
(dp397
g8
VSophomore
p398
sg10
VStudent
p399
sg12
VCollege of Engineering
p400
sg14
VYuhan Wu
p401
sg16
g395
sbsS'cbach1'
p402
g3
(g4
g5
NtRp403
(dp404
g8
VSophomore
p405
sg10
VStudent
p406
sg12
VCollege of Engineering
p407
sg14
VConnor Dillon Bach
p408
sg16
g402
sbsS'hle1'
p409
g3
(g4
g5
NtRp410
(dp411
g8
VSenior
p412
sg10
VStudent
p413
sg12
VCollege of Engineering
p414
sg14
VHarrison NguyenVi Le
p415
sg16
g409
sbsS'egenove1'
p416
g3
(g4
g5
NtRp417
(dp418
g8
VSophomore
p419
sg10
VStudent
p420
sg12
VCollege of Engineering
p421
sg14
VElizabeth Ann Genovese
p422
sg16
g416
sbsS'eyuan1'
p423
g3
(g4
g5
NtRp424
(dp425
g8
VSophomore
p426
sg10
VStudent
p427
sg12
VCollege of Engineering
p428
sg14
VEdward Bryan Yuan
p429
sg16
g423
sbsS'dburns3'
p430
g3
(g4
g5
NtRp431
(dp432
g8
VJunior
p433
sg10
VStudent
p434
sg12
VCollege of Engineering
p435
sg14
VDaniel James Burns
p436
sg16
g430
sbsS'jbodeau'
p437
g3
(g4
g5
NtRp438
(dp439
g8
VJunior
p440
sg10
VStudent
p441
sg12
VCollege of Engineering
p442
sg14
VJames Geoffrey Bodeau
p443
sg16
g437
sbsS'jgarrard'
p444
g3
(g4
g5
NtRp445
(dp446
g8
VJunior
p447
sg10
VStudent
p448
sg12
VCollege of Engineering
p449
sg14
VJustin Alexander Garrard
p450
sg16
g444
sbsS'lthiery'
p451
g3
(g4
g5
NtRp452
(dp453
g8
VJunior
p454
sg10
VStudent
p455
sg12
VCollege of Engineering
p456
sg14
VLouis Edward Thiery
p457
sg16
g451
sbsS'kdodson'
p458
g3
(g4
g5
NtRp459
(dp460
g8
VJunior
p461
sg10
VStudent
p462
sg12
VCollege of Engineering
p463
sg14
VKelly Ann Dodson
p464
sg16
g458
sbs.